; Function Attrs: nounwind uwtable
define internal noundef i32 @spl_iterator_to_array_apply(ptr noundef %0, ptr nocapture noundef readonly %1) #0 {
  %3 = alloca %struct._zval_struct, align 8
  %4 = getelementptr inbounds i8, ptr %0, i64 72
  %5 = load ptr, ptr %4, align 8
  %6 = getelementptr inbounds i8, ptr %5, i64 16
  %7 = load ptr, ptr %6, align 8
  %8 = tail call ptr %7(ptr noundef %0) #10
  %9 = load ptr, ptr getelementptr inbounds (%struct._zend_executor_globals, ptr @executor_globals, i64 0, i32 50), align 8
  %.not = icmp ne ptr %9, null
  %10 = icmp eq ptr %8, null
  %or.cond = select i1 %.not, i1 true, i1 %10
  br i1 %or.cond, label %30, label %11

11:                                               ; preds = %2
  %12 = load ptr, ptr %4, align 8
  %13 = getelementptr inbounds i8, ptr %12, i64 24
  %14 = load ptr, ptr %13, align 8
  %.not20 = icmp eq ptr %14, null
  br i1 %.not20, label %20, label %15

15:                                               ; preds = %11
  call void %14(ptr noundef nonnull %0, ptr noundef nonnull %3) #10
  %16 = load ptr, ptr getelementptr inbounds (%struct._zend_executor_globals, ptr @executor_globals, i64 0, i32 50), align 8
  %.not22 = icmp eq ptr %16, null
  br i1 %.not22, label %17, label %30

17:                                               ; preds = %15
  %18 = load ptr, ptr %1, align 8
  %19 = call i32 @array_set_zval_key(ptr noundef %18, ptr noundef nonnull %3, ptr noundef nonnull %8) #10
  call void @zval_ptr_dtor(ptr noundef nonnull %3) #10
  br label %30

20:                                               ; preds = %11
  %21 = getelementptr inbounds i8, ptr %8, i64 9
  %22 = load i8, ptr %21, align 1
  %.not21 = icmp eq i8 %22, 0
  br i1 %.not21, label %27, label %23

23:                                               ; preds = %20
  %24 = load ptr, ptr %8, align 8
  %25 = load i32, ptr %24, align 4
  %26 = add i32 %25, 1
  store i32 %26, ptr %24, align 4
  br label %27

27:                                               ; preds = %20, %23
  %28 = load ptr, ptr %1, align 8
  %29 = tail call ptr @zend_hash_next_index_insert(ptr noundef %28, ptr noundef nonnull %8) #10
  br label %30

30:                                               ; preds = %17, %27, %15, %2
  %.0 = phi i32 [ 2, %2 ], [ 2, %15 ], [ 0, %27 ], [ 0, %17 ]
  ret i32 %.0
}